target datalayout = "e-m:e-p270:32:32-p271:32:32-p272:64:64-i64:64-i128:128-f80:128-n8:16:32:64-S128"
target triple = "x86_64-pc-linux-gnu"

@.str.4 = private unnamed_addr constant [2 x i8] c"\0A\00", align 1
@.str.5 = private unnamed_addr constant [26 x i8] c"    scratchpad [options]\0A\00", align 1
@.str.6 = private unnamed_addr constant [79 x i8] c"This pass allows to read and modify values from the scratchpad of the current\0A\00", align 1
@.str.7 = private unnamed_addr constant [18 x i8] c"design. Options:\0A\00", align 1
@.str.8 = private unnamed_addr constant [23 x i8] c"    -get <identifier>\0A\00", align 1
@.str.9 = private unnamed_addr constant [77 x i8] c"        print the value saved in the scratchpad under the given identifier.\0A\00", align 1
@.str.10 = private unnamed_addr constant [31 x i8] c"    -set <identifier> <value>\0A\00", align 1
@.str.11 = private unnamed_addr constant [76 x i8] c"        save the given value in the scratchpad under the given identifier.\0A\00", align 1
@.str.12 = private unnamed_addr constant [25 x i8] c"    -unset <identifier>\0A\00", align 1
@.str.13 = private unnamed_addr constant [72 x i8] c"        remove the entry for the given identifier from the scratchpad.\0A\00", align 1
@.str.14 = private unnamed_addr constant [45 x i8] c"    -copy <identifier_from> <identifier_to>\0A\00", align 1
@.str.15 = private unnamed_addr constant [74 x i8] c"        copy the value of the first identifier to the second identifier.\0A\00", align 1
@.str.16 = private unnamed_addr constant [34 x i8] c"    -assert <identifier> <value>\0A\00", align 1
@.str.17 = private unnamed_addr constant [76 x i8] c"        assert that the entry for the given identifier is set to the given\0A\00", align 1
@.str.18 = private unnamed_addr constant [16 x i8] c"        value.\0A\00", align 1
@.str.19 = private unnamed_addr constant [30 x i8] c"    -assert-set <identifier>\0A\00", align 1
@.str.20 = private unnamed_addr constant [64 x i8] c"        assert that the entry for the given identifier exists.\0A\00", align 1
@.str.21 = private unnamed_addr constant [32 x i8] c"    -assert-unset <identifier>\0A\00", align 1
@.str.22 = private unnamed_addr constant [72 x i8] c"        assert that the entry for the given identifier does not exist.\0A\00", align 1
@.str.23 = private unnamed_addr constant [82 x i8] c"The identifier may not contain whitespace. By convention, it is usually prefixed\0A\00", align 1
@.str.24 = private unnamed_addr constant [78 x i8] c"by the name of the pass that uses it, e.g. 'opt.did_something'. If the value\0A\00", align 1
@.str.25 = private unnamed_addr constant [60 x i8] c"contains whitespace, it must be enclosed in double quotes.\0A\00", align 1

; Function Attrs: mustprogress uwtable
define internal void @_ZN12_GLOBAL__N_114ScratchpadPass4helpEv(ptr noundef nonnull align 8 dereferenceable(104) %0) unnamed_addr #4 align 2 {
  %2 = alloca ptr, align 8
  store ptr %0, ptr %2, align 8, !tbaa !6
  call void (ptr, ...) @_ZN5Yosys3logEPKcz(ptr noundef @.str.4)
  call void (ptr, ...) @_ZN5Yosys3logEPKcz(ptr noundef @.str.5)
  call void (ptr, ...) @_ZN5Yosys3logEPKcz(ptr noundef @.str.4)
  call void (ptr, ...) @_ZN5Yosys3logEPKcz(ptr noundef @.str.6)
  call void (ptr, ...) @_ZN5Yosys3logEPKcz(ptr noundef @.str.7)
  call void (ptr, ...) @_ZN5Yosys3logEPKcz(ptr noundef @.str.4)
  call void (ptr, ...) @_ZN5Yosys3logEPKcz(ptr noundef @.str.8)
  call void (ptr, ...) @_ZN5Yosys3logEPKcz(ptr noundef @.str.9)
  call void (ptr, ...) @_ZN5Yosys3logEPKcz(ptr noundef @.str.4)
  call void (ptr, ...) @_ZN5Yosys3logEPKcz(ptr noundef @.str.10)
  call void (ptr, ...) @_ZN5Yosys3logEPKcz(ptr noundef @.str.11)
  call void (ptr, ...) @_ZN5Yosys3logEPKcz(ptr noundef @.str.4)
  call void (ptr, ...) @_ZN5Yosys3logEPKcz(ptr noundef @.str.12)
  call void (ptr, ...) @_ZN5Yosys3logEPKcz(ptr noundef @.str.13)
  call void (ptr, ...) @_ZN5Yosys3logEPKcz(ptr noundef @.str.4)
  call void (ptr, ...) @_ZN5Yosys3logEPKcz(ptr noundef @.str.14)
  call void (ptr, ...) @_ZN5Yosys3logEPKcz(ptr noundef @.str.15)
  call void (ptr, ...) @_ZN5Yosys3logEPKcz(ptr noundef @.str.4)
  call void (ptr, ...) @_ZN5Yosys3logEPKcz(ptr noundef @.str.16)
  call void (ptr, ...) @_ZN5Yosys3logEPKcz(ptr noundef @.str.17)
  call void (ptr, ...) @_ZN5Yosys3logEPKcz(ptr noundef @.str.18)
  call void (ptr, ...) @_ZN5Yosys3logEPKcz(ptr noundef @.str.4)
  call void (ptr, ...) @_ZN5Yosys3logEPKcz(ptr noundef @.str.19)
  call void (ptr, ...) @_ZN5Yosys3logEPKcz(ptr noundef @.str.20)
  call void (ptr, ...) @_ZN5Yosys3logEPKcz(ptr noundef @.str.4)
  call void (ptr, ...) @_ZN5Yosys3logEPKcz(ptr noundef @.str.21)
  call void (ptr, ...) @_ZN5Yosys3logEPKcz(ptr noundef @.str.22)
  call void (ptr, ...) @_ZN5Yosys3logEPKcz(ptr noundef @.str.4)
  call void (ptr, ...) @_ZN5Yosys3logEPKcz(ptr noundef @.str.23)
  call void (ptr, ...) @_ZN5Yosys3logEPKcz(ptr noundef @.str.24)
  call void (ptr, ...) @_ZN5Yosys3logEPKcz(ptr noundef @.str.25)
  call void (ptr, ...) @_ZN5Yosys3logEPKcz(ptr noundef @.str.4)
  ret void
}